; Function Attrs: mustprogress nounwind uwtable
define void @_ZN3url6ParsedD2Ev(ptr noundef nonnull readonly align 8 captures(none) dereferenceable(72) %0) unnamed_addr #2 align 2 {
  %2 = getelementptr inbounds nuw i8, ptr %0, i64 64
  %3 = load ptr, ptr %2, align 8, !tbaa !9
  %4 = icmp eq ptr %3, null
  br i1 %4, label %6, label %5

5:                                                ; preds = %1
  tail call void @_ZN3url6ParsedD1Ev(ptr noundef nonnull align 8 dereferenceable(72) %3) #15
  tail call void @_ZdlPv(ptr noundef nonnull %3) #14
  br label %6

6:                                                ; preds = %5, %1
  ret void
}